/*
 * Intel ACPI Component Architecture
 * AML/ASL+ Disassembler version 20230628 (32-bit version)
 * Copyright (c) 2000 - 2023 Intel Corporation
 * 
 * Disassembly of AAFT.aml, Mon Mar 18 01:33:25 2024
 *
 * ACPI Data Table [AAFT]
 *
 * Format: [HexOffset DecimalOffset ByteLength]  FieldName : FieldValue (in hex)
 */

[000h 0000 004h]                   Signature : "AAFT"    
[004h 0004 004h]                Table Length : 000002EF
[008h 0008 001h]                    Revision : 01
[009h 0009 001h]                    Checksum : 3B
[00Ah 0010 006h]                      Oem ID : "ALASKA"
[010h 0016 008h]                Oem Table ID : "OEMAAFT "
[018h 0024 004h]                Oem Revision : 01072009
[01Ch 0028 004h]             Asl Compiler ID : "MSFT"
[020h 0032 004h]       Asl Compiler Revision : 00000097


**** Unknown ACPI table signature [AAFT]


Raw Table Data: Length 751 (0x2EF)

    0000: 41 41 46 54 EF 02 00 00 01 3B 41 4C 41 53 4B 41  // AAFT.....;ALASKA
    0010: 4F 45 4D 41 41 46 54 20 09 20 07 01 4D 53 46 54  // OEMAAFT . ..MSFT
    0020: 97 00 00 00 1A 11 00 00 00 4E 54 46 53 00 00 00  // .........NTFS...
    0030: 00 03 00 01 00 15 2C 00 00 00 02 53 41 54 41 33  // ......,....SATA3
    0040: 20 43 6F 6E 74 72 6F 6C 6C 65 72 00 00 00 00 00  //  Controller.....
    0050: 00 00 00 00 00 00 00 00 00 00 00 2D 01 01 00 01  // ...........-....
    0060: 02 15 2C 00 00 00 02 53 5F 53 41 54 41 33 20 43  // ..,....S_SATA3 C
    0070: 6F 6E 74 72 6F 6C 6C 65 72 00 00 00 00 00 00 00  // ontroller.......
    0080: 00 00 00 00 00 00 00 6C 01 01 00 01 FF 10 67 00  // .......l......g.
    0090: 00 00 02 43 D6 87 EC A4 EB B5 4B A1 E5 3F 3E 36  // ...C......K..?>6
    00A0: B2 0D A9 49 6E 74 65 6C 53 65 74 75 70 00 00 00  // ...IntelSetup...
    00B0: 00 00 00 00 00 00 00 00 00 00 00 00 00 00 00 00  // ................
    00C0: 00 00 00 01 43 D6 87 EC A4 EB B5 4B A1 E5 3F 3E  // ....C......K..?>
    00D0: 36 B2 0D A9 53 65 74 75 70 00 00 00 00 00 00 00  // 6...Setup.......
    00E0: 00 00 00 00 00 00 00 00 00 00 00 00 00 00 00 00  // ................
    00F0: 00 00 00 00 11 DD 00 00 00 01 47 4F 4F 44 5F 4E  // ..........GOOD_N
    0100: 49 47 54 48 5F 4C 45 44 00 00 00 00 00 00 00 00  // IGTH_LED........
    0110: 00 00 00 00 00 00 00 00 00 00 69 01 01 01 44 72  // ..........i...Dr
    0120: 79 46 75 6E 63 74 69 6F 6E 00 00 00 00 00 00 00  // yFunction.......
    0130: 00 00 00 00 00 00 00 00 00 00 00 00 00 00 61 01  // ..............a.
    0140: 01 01 44 72 79 50 65 72 69 6F 64 00 00 00 00 00  // ..DryPeriod.....
    0150: 00 00 00 00 00 00 00 00 00 00 00 00 00 00 00 00  // ................
    0160: 00 00 62 01 01 01 44 72 79 44 75 72 61 74 69 6F  // ..b...DryDuratio
    0170: 6E 00 00 00 00 00 00 00 00 00 00 00 00 00 00 00  // n...............
    0180: 00 00 00 00 00 00 63 01 01 01 44 72 79 46 61 6E  // ......c...DryFan
    0190: 43 6F 6E 74 72 6F 6C 00 00 00 00 00 00 00 00 00  // Control.........
    01A0: 00 00 00 00 00 00 00 00 00 00 64 01 01 01 46 61  // ..........d...Fa
    01B0: 73 74 42 6F 6F 74 00 00 00 00 00 00 00 00 00 00  // stBoot..........
    01C0: 00 00 00 00 00 00 00 00 00 00 00 00 00 00 01 00  // ................
    01D0: 01 12 05 00 00 00 16 07 00 00 00 01 11 14 E5 00  // ................
    01E0: 00 00 00 53 41 54 41 5F 50 57 52 5F 31 00 00 00  // ...SATA_PWR_1...
    01F0: 00 00 00 53 49 4F 20 47 50 49 4F 31 30 3D 48 69  // ...SIO GPIO10=Hi
    0200: 67 68 00 00 00 00 00 00 00 00 00 00 00 00 00 00  // gh..............
    0210: 00 00 00 53 49 4F 20 47 50 49 4F 31 30 3D 4C 6F  // ...SIO GPIO10=Lo
    0220: 77 00 00 00 00 00 00 00 00 00 00 00 00 00 00 00  // w...............
    0230: 00 00 00 02 00 00 00 00 00 00 00 00 00 00 00 00  // ................
    0240: 00 00 00 00 00 00 00 00 00 00 00 00 00 00 00 00  // ................
    0250: 00 00 00 00 00 00 00 00 00 00 00 00 00 00 00 00  // ................
    0260: 00 00 00 00 00 00 00 00 00 00 00 00 00 00 00 00  // ................
    0270: 00 00 00 00 00 00 00 00 00 00 00 00 00 00 00 00  // ................
    0280: 00 00 00 00 00 00 00 00 00 00 00 00 00 00 00 00  // ................
    0290: 00 00 00 00 00 00 00 00 00 00 00 00 00 00 00 00  // ................
    02A0: 00 00 00 00 00 00 00 00 00 00 00 00 00 00 00 00  // ................
    02B0: 00 00 00 00 00 00 00 00 00 00 00 00 00 00 00 00  // ................
    02C0: 00 00 17 2D 00 00 00 0D 05 00 00 00 00 00 00 09  // ...-............
    02D0: 05 00 00 00 00 00 00 06 31 02 32 00 00 00 00 02  // ........1.2.....
    02E0: 31 06 32 00 00 00 00 0E 31 0E 32 00 00 00 00     // 1.2.....1.2....
