/*
 * Intel ACPI Component Architecture
 * AML/ASL+ Disassembler version 20230628 (32-bit version)
 * Copyright (c) 2000 - 2023 Intel Corporation
 * 
 * Disassembly of FIDT.aml, Mon Mar 18 01:33:26 2024
 *
 * ACPI Data Table [FIDT]
 *
 * Format: [HexOffset DecimalOffset ByteLength]  FieldName : FieldValue (in hex)
 */

[000h 0000 004h]                   Signature : "FIDT"    
[004h 0004 004h]                Table Length : 0000009C
[008h 0008 001h]                    Revision : 01
[009h 0009 001h]                    Checksum : 4C
[00Ah 0010 006h]                      Oem ID : "ALASKA"
[010h 0016 008h]                Oem Table ID : "A M I "
[018h 0024 004h]                Oem Revision : 01072009
[01Ch 0028 004h]             Asl Compiler ID : "AMI "
[020h 0032 004h]       Asl Compiler Revision : 00010013


**** Unknown ACPI table signature [FIDT]


Raw Table Data: Length 156 (0x9C)

    0000: 46 49 44 54 9C 00 00 00 01 4C 41 4C 41 53 4B 41  // FIDT.....LALASKA
    0010: 41 20 4D 20 49 20 00 00 09 20 07 01 41 4D 49 20  // A M I ... ..AMI 
    0020: 13 00 01 00 24 46 49 44 04 78 00 41 31 31 38 35  // ....$FID.x.A1185
    0030: 00 00 00 00 54 10 80 38 8B 64 E0 58 3E 9F 5C 0D  // ....T..8.d.X>.\.
    0040: 97 DF 08 CD 30 35 00 30 36 00 30 33 00 38 31 00  // ....05.06.03.81.
    0050: 00 00 00 00 00 00 00 FF FF 41 4C 41 53 4B 41 41  // .........ALASKAA
    0060: 20 4D 20 49 20 00 00 00 00 00 00 00 00 00 00 00  //  M I ...........
    0070: 00 00 00 00 00 00 00 00 00 00 00 00 00 00 00 00  // ................
    0080: 00 00 00 00 00 00 00 00 00 00 00 00 00 00 00 00  // ................
    0090: 00 00 00 00 00 00 00 00 00 00 00 00              // ............
